target datalayout = "e-m:e-p270:32:32-p271:32:32-p272:64:64-i64:64-i128:128-f80:128-n8:16:32:64-S128"
target triple = "x86_64-pc-linux-gnu"

%struct.Vec_Wrd_t_ = type { i32, i32, ptr }

@Extra_Truth6ChangePhase.Truth6 = internal global [6 x i64] [i64 -6148914691236517206, i64 -3689348814741910324, i64 -1085102592571150096, i64 -71777214294589696, i64 -281470681808896, i64 -4294967296], align 16

; Function Attrs: inlinehint nounwind uwtable
define internal ptr @Vec_WrdAlloc(i32 noundef %0) #3 {
  %2 = alloca i32, align 4
  %3 = alloca ptr, align 8
  store i32 %0, ptr %2, align 4, !tbaa !24
  call void @llvm.lifetime.start.p0(i64 8, ptr %3) #12
  %4 = call noalias ptr @malloc(i64 noundef 16) #14
  store ptr %4, ptr %3, align 8, !tbaa !40
  %5 = load i32, ptr %2, align 4, !tbaa !24
  %6 = icmp sgt i32 %5, 0
  br i1 %6, label %7, label %11

7:                                                ; preds = %1
  %8 = load i32, ptr %2, align 4, !tbaa !24
  %9 = icmp slt i32 %8, 16
  br i1 %9, label %10, label %11

10:                                               ; preds = %7
  store i32 16, ptr %2, align 4, !tbaa !24
  br label %11

11:                                               ; preds = %10, %7, %1
  %12 = load ptr, ptr %3, align 8, !tbaa !40
  %13 = getelementptr inbounds nuw %struct.Vec_Wrd_t_, ptr %12, i32 0, i32 1
  store i32 0, ptr %13, align 4, !tbaa !41
  %14 = load i32, ptr %2, align 4, !tbaa !24
  %15 = load ptr, ptr %3, align 8, !tbaa !40
  %16 = getelementptr inbounds nuw %struct.Vec_Wrd_t_, ptr %15, i32 0, i32 0
  store i32 %14, ptr %16, align 8, !tbaa !44
  %17 = load ptr, ptr %3, align 8, !tbaa !40
  %18 = getelementptr inbounds nuw %struct.Vec_Wrd_t_, ptr %17, i32 0, i32 0
  %19 = load i32, ptr %18, align 8, !tbaa !44
  %20 = icmp ne i32 %19, 0
  br i1 %20, label %21, label %28

21:                                               ; preds = %11
  %22 = load ptr, ptr %3, align 8, !tbaa !40
  %23 = getelementptr inbounds nuw %struct.Vec_Wrd_t_, ptr %22, i32 0, i32 0
  %24 = load i32, ptr %23, align 8, !tbaa !44
  %25 = sext i32 %24 to i64
  %26 = mul i64 8, %25
  %27 = call noalias ptr @malloc(i64 noundef %26) #14
  br label %29

28:                                               ; preds = %11
  br label %29

29:                                               ; preds = %28, %21
  %30 = phi ptr [ %27, %21 ], [ null, %28 ]
  %31 = load ptr, ptr %3, align 8, !tbaa !40
  %32 = getelementptr inbounds nuw %struct.Vec_Wrd_t_, ptr %31, i32 0, i32 2
  store ptr %30, ptr %32, align 8, !tbaa !45
  %33 = load ptr, ptr %3, align 8, !tbaa !40
  call void @llvm.lifetime.end.p0(i64 8, ptr %3) #12
  ret ptr %33
}

; Function Attrs: inlinehint nounwind uwtable
define internal i64 @Vec_WrdEntry(ptr noundef %0, i32 noundef %1) #3 {
  %3 = alloca ptr, align 8
  %4 = alloca i32, align 4
  store ptr %0, ptr %3, align 8, !tbaa !40
  store i32 %1, ptr %4, align 4, !tbaa !24
  %5 = load ptr, ptr %3, align 8, !tbaa !40
  %6 = getelementptr inbounds nuw %struct.Vec_Wrd_t_, ptr %5, i32 0, i32 2
  %7 = load ptr, ptr %6, align 8, !tbaa !45
  %8 = load i32, ptr %4, align 4, !tbaa !24
  %9 = sext i32 %8 to i64
  %10 = getelementptr inbounds i64, ptr %7, i64 %9
  %11 = load i64, ptr %10, align 8, !tbaa !55
  ret i64 %11
}

; Function Attrs: inlinehint nounwind uwtable
define internal i32 @Vec_WrdSize(ptr noundef %0) #3 {
  %2 = alloca ptr, align 8
  store ptr %0, ptr %2, align 8, !tbaa !40
  %3 = load ptr, ptr %2, align 8, !tbaa !40
  %4 = getelementptr inbounds nuw %struct.Vec_Wrd_t_, ptr %3, i32 0, i32 1
  %5 = load i32, ptr %4, align 4, !tbaa !41
  ret i32 %5
}

; Function Attrs: inlinehint nounwind uwtable
define internal i64 @Extra_Truth6SwapAdjacent(i64 noundef %0, i32 noundef %1) #3 {
  %3 = alloca i64, align 8
  %4 = alloca i32, align 4
  store i64 %0, ptr %3, align 8, !tbaa !55
  store i32 %1, ptr %4, align 4, !tbaa !24
  %5 = load i64, ptr %3, align 8, !tbaa !55
  %6 = load i32, ptr %4, align 4, !tbaa !24
  %7 = sext i32 %6 to i64
  %8 = getelementptr inbounds [5 x [3 x i64]], ptr @Extra_Truth6SwapAdjacent.PMasks, i64 0, i64 %7
  %9 = getelementptr inbounds [3 x i64], ptr %8, i64 0, i64 0
  %10 = load i64, ptr %9, align 8, !tbaa !55
  %11 = and i64 %5, %10
  %12 = load i64, ptr %3, align 8, !tbaa !55
  %13 = load i32, ptr %4, align 4, !tbaa !24
  %14 = sext i32 %13 to i64
  %15 = getelementptr inbounds [5 x [3 x i64]], ptr @Extra_Truth6SwapAdjacent.PMasks, i64 0, i64 %14
  %16 = getelementptr inbounds [3 x i64], ptr %15, i64 0, i64 1
  %17 = load i64, ptr %16, align 8, !tbaa !55
  %18 = and i64 %12, %17
  %19 = load i32, ptr %4, align 4, !tbaa !24
  %20 = shl i32 1, %19
  %21 = zext i32 %20 to i64
  %22 = shl i64 %18, %21
  %23 = or i64 %11, %22
  %24 = load i64, ptr %3, align 8, !tbaa !55
  %25 = load i32, ptr %4, align 4, !tbaa !24
  %26 = sext i32 %25 to i64
  %27 = getelementptr inbounds [5 x [3 x i64]], ptr @Extra_Truth6SwapAdjacent.PMasks, i64 0, i64 %26
  %28 = getelementptr inbounds [3 x i64], ptr %27, i64 0, i64 2
  %29 = load i64, ptr %28, align 8, !tbaa !55
  %30 = and i64 %24, %29
  %31 = load i32, ptr %4, align 4, !tbaa !24
  %32 = shl i32 1, %31
  %33 = zext i32 %32 to i64
  %34 = lshr i64 %30, %33
  %35 = or i64 %23, %34
  ret i64 %35
}

; Function Attrs: inlinehint nounwind uwtable
define internal i64 @Extra_Truth6ChangePhase(i64 noundef %0, i32 noundef %1) #3 {
  %3 = alloca i64, align 8
  %4 = alloca i32, align 4
  store i64 %0, ptr %3, align 8, !tbaa !55
  store i32 %1, ptr %4, align 4, !tbaa !24
  %5 = load i64, ptr %3, align 8, !tbaa !55
  %6 = load i32, ptr %4, align 4, !tbaa !24
  %7 = sext i32 %6 to i64
  %8 = getelementptr inbounds [6 x i64], ptr @Extra_Truth6ChangePhase.Truth6, i64 0, i64 %7
  %9 = load i64, ptr %8, align 8, !tbaa !55
  %10 = xor i64 %9, -1
  %11 = and i64 %5, %10
  %12 = load i32, ptr %4, align 4, !tbaa !24
  %13 = shl i32 1, %12
  %14 = zext i32 %13 to i64
  %15 = shl i64 %11, %14
  %16 = load i64, ptr %3, align 8, !tbaa !55
  %17 = load i32, ptr %4, align 4, !tbaa !24
  %18 = sext i32 %17 to i64
  %19 = getelementptr inbounds [6 x i64], ptr @Extra_Truth6ChangePhase.Truth6, i64 0, i64 %18
  %20 = load i64, ptr %19, align 8, !tbaa !55
  %21 = and i64 %16, %20
  %22 = load i32, ptr %4, align 4, !tbaa !24
  %23 = shl i32 1, %22
  %24 = zext i32 %23 to i64
  %25 = lshr i64 %21, %24
  %26 = or i64 %15, %25
  ret i64 %26
}

; Function Attrs: inlinehint nounwind uwtable
define internal void @Vec_WrdWriteEntry(ptr noundef %0, i32 noundef %1, i64 noundef %2) #3 {
  %4 = alloca ptr, align 8
  %5 = alloca i32, align 4
  %6 = alloca i64, align 8
  store ptr %0, ptr %4, align 8, !tbaa !40
  store i32 %1, ptr %5, align 4, !tbaa !24
  store i64 %2, ptr %6, align 8, !tbaa !55
  %7 = load i64, ptr %6, align 8, !tbaa !55
  %8 = load ptr, ptr %4, align 8, !tbaa !40
  %9 = getelementptr inbounds nuw %struct.Vec_Wrd_t_, ptr %8, i32 0, i32 2
  %10 = load ptr, ptr %9, align 8, !tbaa !45
  %11 = load i32, ptr %5, align 4, !tbaa !24
  %12 = sext i32 %11 to i64
  %13 = getelementptr inbounds i64, ptr %10, i64 %12
  store i64 %7, ptr %13, align 8, !tbaa !55
  ret void
}

; Function Attrs: inlinehint nounwind uwtable
define internal ptr @Vec_WrdStart(i32 noundef %0) #3 {
  %2 = alloca i32, align 4
  %3 = alloca ptr, align 8
  store i32 %0, ptr %2, align 4, !tbaa !24
  call void @llvm.lifetime.start.p0(i64 8, ptr %3) #12
  %4 = load i32, ptr %2, align 4, !tbaa !24
  %5 = call ptr @Vec_WrdAlloc(i32 noundef %4)
  store ptr %5, ptr %3, align 8, !tbaa !40
  %6 = load i32, ptr %2, align 4, !tbaa !24
  %7 = load ptr, ptr %3, align 8, !tbaa !40
  %8 = getelementptr inbounds nuw %struct.Vec_Wrd_t_, ptr %7, i32 0, i32 1
  store i32 %6, ptr %8, align 4, !tbaa !41
  %9 = load ptr, ptr %3, align 8, !tbaa !40
  %10 = getelementptr inbounds nuw %struct.Vec_Wrd_t_, ptr %9, i32 0, i32 2
  %11 = load ptr, ptr %10, align 8, !tbaa !45
  %12 = load i32, ptr %2, align 4, !tbaa !24
  %13 = sext i32 %12 to i64
  %14 = mul i64 8, %13
  call void @llvm.memset.p0.i64(ptr align 8 %11, i8 0, i64 %14, i1 false)
  %15 = load ptr, ptr %3, align 8, !tbaa !40
  call void @llvm.lifetime.end.p0(i64 8, ptr %3) #12
  ret ptr %15
}

; Function Attrs: nounwind uwtable
define ptr @Extra_Truth6AllConfigs2(i64 noundef %0, ptr noundef %1, ptr noundef %2, i32 noundef %3) #0 {
  %5 = alloca i64, align 8
  %6 = alloca ptr, align 8
  %7 = alloca ptr, align 8
  %8 = alloca i32, align 4
  %9 = alloca i32, align 4
  %10 = alloca i32, align 4
  %11 = alloca ptr, align 8
  %12 = alloca i64, align 8
  %13 = alloca i64, align 8
  %14 = alloca i64, align 8
  %15 = alloca i32, align 4
  %16 = alloca i32, align 4
  %17 = alloca i32, align 4
  %18 = alloca i32, align 4
  %19 = alloca i64, align 8
  store i64 %0, ptr %5, align 8, !tbaa !55
  store ptr %1, ptr %6, align 8, !tbaa !51
  store ptr %2, ptr %7, align 8, !tbaa !51
  store i32 %3, ptr %8, align 4, !tbaa !24
  call void @llvm.lifetime.start.p0(i64 4, ptr %9) #12
  %20 = load i32, ptr %8, align 4, !tbaa !24
  %21 = call i32 @Extra_Factorial(i32 noundef %20)
  store i32 %21, ptr %9, align 4, !tbaa !24
  call void @llvm.lifetime.start.p0(i64 4, ptr %10) #12
  %22 = load i32, ptr %8, align 4, !tbaa !24
  %23 = shl i32 1, %22
  store i32 %23, ptr %10, align 4, !tbaa !24
  call void @llvm.lifetime.start.p0(i64 8, ptr %11) #12
  %24 = load i32, ptr %9, align 4, !tbaa !24
  %25 = load i32, ptr %8, align 4, !tbaa !24
  %26 = add nsw i32 %25, 1
  %27 = shl i32 1, %26
  %28 = mul nsw i32 %24, %27
  %29 = call ptr @Vec_WrdStart(i32 noundef %28)
  store ptr %29, ptr %11, align 8, !tbaa !40
  call void @llvm.lifetime.start.p0(i64 8, ptr %12) #12
  call void @llvm.lifetime.start.p0(i64 8, ptr %13) #12
  call void @llvm.lifetime.start.p0(i64 8, ptr %14) #12
  call void @llvm.lifetime.start.p0(i64 4, ptr %15) #12
  call void @llvm.lifetime.start.p0(i64 4, ptr %16) #12
  call void @llvm.lifetime.start.p0(i64 4, ptr %17) #12
  store i32 0, ptr %15, align 4, !tbaa !24
  br label %30

30:                                               ; preds = %89, %4
  %31 = load i32, ptr %15, align 4, !tbaa !24
  %32 = icmp slt i32 %31, 2
  br i1 %32, label %33, label %92

33:                                               ; preds = %30
  %34 = load i32, ptr %15, align 4, !tbaa !24
  %35 = icmp ne i32 %34, 0
  br i1 %35, label %36, label %38

36:                                               ; preds = %33
  %37 = load i64, ptr %5, align 8, !tbaa !55
  br label %41

38:                                               ; preds = %33
  %39 = load i64, ptr %5, align 8, !tbaa !55
  %40 = xor i64 %39, -1
  br label %41

41:                                               ; preds = %38, %36
  %42 = phi i64 [ %37, %36 ], [ %40, %38 ]
  store i64 %42, ptr %12, align 8, !tbaa !55
  %43 = load i64, ptr %12, align 8, !tbaa !55
  store i64 %43, ptr %13, align 8, !tbaa !55
  store i32 0, ptr %16, align 4, !tbaa !24
  br label %44

44:                                               ; preds = %85, %41
  %45 = load i32, ptr %16, align 4, !tbaa !24
  %46 = load i32, ptr %9, align 4, !tbaa !24
  %47 = icmp slt i32 %45, %46
  br i1 %47, label %48, label %88

48:                                               ; preds = %44
  %49 = load i64, ptr %12, align 8, !tbaa !55
  store i64 %49, ptr %14, align 8, !tbaa !55
  store i32 0, ptr %17, align 4, !tbaa !24
  br label %50

50:                                               ; preds = %74, %48
  %51 = load i32, ptr %17, align 4, !tbaa !24
  %52 = load i32, ptr %10, align 4, !tbaa !24
  %53 = icmp slt i32 %51, %52
  br i1 %53, label %54, label %77

54:                                               ; preds = %50
  %55 = load ptr, ptr %11, align 8, !tbaa !40
  %56 = load i32, ptr %16, align 4, !tbaa !24
  %57 = load i32, ptr %8, align 4, !tbaa !24
  %58 = add nsw i32 %57, 1
  %59 = shl i32 %56, %58
  %60 = load i32, ptr %15, align 4, !tbaa !24
  %61 = load i32, ptr %8, align 4, !tbaa !24
  %62 = shl i32 %60, %61
  %63 = or i32 %59, %62
  %64 = load i32, ptr %17, align 4, !tbaa !24
  %65 = or i32 %63, %64
  %66 = load i64, ptr %12, align 8, !tbaa !55
  call void @Vec_WrdWriteEntry(ptr noundef %55, i32 noundef %65, i64 noundef %66)
  %67 = load i64, ptr %12, align 8, !tbaa !55
  %68 = load ptr, ptr %6, align 8, !tbaa !51
  %69 = load i32, ptr %17, align 4, !tbaa !24
  %70 = sext i32 %69 to i64
  %71 = getelementptr inbounds i32, ptr %68, i64 %70
  %72 = load i32, ptr %71, align 4, !tbaa !24
  %73 = call i64 @Extra_Truth6ChangePhase(i64 noundef %67, i32 noundef %72)
  store i64 %73, ptr %12, align 8, !tbaa !55
  br label %74

74:                                               ; preds = %54
  %75 = load i32, ptr %17, align 4, !tbaa !24
  %76 = add nsw i32 %75, 1
  store i32 %76, ptr %17, align 4, !tbaa !24
  br label %50, !llvm.loop !104

77:                                               ; preds = %50
  %78 = load i64, ptr %12, align 8, !tbaa !55
  %79 = load ptr, ptr %7, align 8, !tbaa !51
  %80 = load i32, ptr %16, align 4, !tbaa !24
  %81 = sext i32 %80 to i64
  %82 = getelementptr inbounds i32, ptr %79, i64 %81
  %83 = load i32, ptr %82, align 4, !tbaa !24
  %84 = call i64 @Extra_Truth6SwapAdjacent(i64 noundef %78, i32 noundef %83)
  store i64 %84, ptr %12, align 8, !tbaa !55
  br label %85

85:                                               ; preds = %77
  %86 = load i32, ptr %16, align 4, !tbaa !24
  %87 = add nsw i32 %86, 1
  store i32 %87, ptr %16, align 4, !tbaa !24
  br label %44, !llvm.loop !105

88:                                               ; preds = %44
  br label %89

89:                                               ; preds = %88
  %90 = load i32, ptr %15, align 4, !tbaa !24
  %91 = add nsw i32 %90, 1
  store i32 %91, ptr %15, align 4, !tbaa !24
  br label %30, !llvm.loop !106

92:                                               ; preds = %30
  %93 = load i64, ptr %5, align 8, !tbaa !55
  %94 = icmp ne i64 %93, 0
  br i1 %94, label %95, label %112

95:                                               ; preds = %92
  call void @llvm.lifetime.start.p0(i64 4, ptr %18) #12
  call void @llvm.lifetime.start.p0(i64 8, ptr %19) #12
  store i32 0, ptr %18, align 4, !tbaa !24
  br label %96

96:                                               ; preds = %108, %95
  %97 = load i32, ptr %18, align 4, !tbaa !24
  %98 = load ptr, ptr %11, align 8, !tbaa !40
  %99 = call i32 @Vec_WrdSize(ptr noundef %98)
  %100 = icmp slt i32 %97, %99
  br i1 %100, label %101, label %105

101:                                              ; preds = %96
  %102 = load ptr, ptr %11, align 8, !tbaa !40
  %103 = load i32, ptr %18, align 4, !tbaa !24
  %104 = call i64 @Vec_WrdEntry(ptr noundef %102, i32 noundef %103)
  store i64 %104, ptr %19, align 8, !tbaa !55
  br label %105

105:                                              ; preds = %101, %96
  %106 = phi i1 [ false, %96 ], [ true, %101 ]
  br i1 %106, label %107, label %111

107:                                              ; preds = %105
  br label %108

108:                                              ; preds = %107
  %109 = load i32, ptr %18, align 4, !tbaa !24
  %110 = add nsw i32 %109, 1
  store i32 %110, ptr %18, align 4, !tbaa !24
  br label %96, !llvm.loop !107

111:                                              ; preds = %105
  call void @llvm.lifetime.end.p0(i64 8, ptr %19) #12
  call void @llvm.lifetime.end.p0(i64 4, ptr %18) #12
  br label %112

112:                                              ; preds = %111, %92
  %113 = load ptr, ptr %11, align 8, !tbaa !40
  call void @llvm.lifetime.end.p0(i64 4, ptr %17) #12
  call void @llvm.lifetime.end.p0(i64 4, ptr %16) #12
  call void @llvm.lifetime.end.p0(i64 4, ptr %15) #12
  call void @llvm.lifetime.end.p0(i64 8, ptr %14) #12
  call void @llvm.lifetime.end.p0(i64 8, ptr %13) #12
  call void @llvm.lifetime.end.p0(i64 8, ptr %12) #12
  call void @llvm.lifetime.end.p0(i64 8, ptr %11) #12
  call void @llvm.lifetime.end.p0(i64 4, ptr %10) #12
  call void @llvm.lifetime.end.p0(i64 4, ptr %9) #12
  ret ptr %113
}