; Function Attrs: nounwind uwtable
define noalias noundef ptr @Extra_Truth6AllConfigs2(i64 noundef %0, ptr noundef readonly captures(none) %1, ptr noundef readonly captures(none) %2, i32 noundef %3) local_unnamed_addr #5 {
  %5 = tail call i32 @Extra_Factorial(i32 noundef %3) #28
  %6 = shl nuw i32 1, %3
  %7 = add nsw i32 %3, 1
  %8 = shl i32 %5, %7
  %9 = tail call noalias dereferenceable_or_null(16) ptr @malloc(i64 noundef 16) #27
  %10 = add i32 %8, -1
  %or.cond.i.i = icmp ult i32 %10, 15
  %spec.store.select.i.i = select i1 %or.cond.i.i, i32 16, i32 %8
  store i32 %spec.store.select.i.i, ptr %9, align 8, !tbaa !32
  %.not.i.i = icmp eq i32 %spec.store.select.i.i, 0
  br i1 %.not.i.i, label %Vec_WrdStart.exit, label %11

11:                                               ; preds = %4
  %12 = sext i32 %spec.store.select.i.i to i64
  %13 = shl nsw i64 %12, 3
  %14 = tail call noalias ptr @malloc(i64 noundef %13) #27
  br label %Vec_WrdStart.exit

Vec_WrdStart.exit:                                ; preds = %4, %11
  %15 = phi ptr [ %14, %11 ], [ null, %4 ]
  %16 = getelementptr inbounds nuw i8, ptr %9, i64 4
  %17 = getelementptr inbounds nuw i8, ptr %9, i64 8
  store ptr %15, ptr %17, align 8, !tbaa !33
  store i32 %8, ptr %16, align 4, !tbaa !29
  %18 = sext i32 %8 to i64
  %19 = shl nsw i64 %18, 3
  tail call void @llvm.memset.p0.i64(ptr align 8 %15, i8 0, i64 %19, i1 false)
  %20 = icmp slt i32 %5, 1
  %.not55 = icmp eq i32 %3, 31
  %or.cond = or i1 %20, %.not55
  br i1 %or.cond, label %.critedge, label %.preheader43.lr.ph.us.us.preheader

.preheader43.lr.ph.us.us.preheader:               ; preds = %Vec_WrdStart.exit
  %smax = tail call i32 @llvm.smax.i32(i32 %6, i32 1)
  %wide.trip.count62 = zext nneg i32 %5 to i64
  %wide.trip.count = zext nneg i32 %smax to i64
  br label %.preheader43.lr.ph.us.us

.preheader43.lr.ph.us.us:                         ; preds = %.preheader43.lr.ph.us.us.preheader, %._crit_edge48.split.us.us.us
  %21 = phi i1 [ true, %.preheader43.lr.ph.us.us.preheader ], [ false, %._crit_edge48.split.us.us.us ]
  %indvars.iv64 = phi i64 [ 0, %.preheader43.lr.ph.us.us.preheader ], [ 1, %._crit_edge48.split.us.us.us ]
  %22 = add nsw i64 %indvars.iv64, -1
  %23 = xor i64 %0, %22
  %24 = trunc nuw nsw i64 %indvars.iv64 to i32
  %25 = shl nuw i32 %24, %3
  br label %.preheader43.us.us.us

.preheader43.us.us.us:                            ; preds = %._crit_edge.us.us.us, %.preheader43.lr.ph.us.us
  %indvars.iv59 = phi i64 [ %indvars.iv.next60, %._crit_edge.us.us.us ], [ 0, %.preheader43.lr.ph.us.us ]
  %.047.us.us.us = phi i64 [ %64, %._crit_edge.us.us.us ], [ %23, %.preheader43.lr.ph.us.us ]
  %26 = trunc nuw nsw i64 %indvars.iv59 to i32
  %27 = shl i32 %26, %7
  %28 = or i32 %27, %25
  br label %29

29:                                               ; preds = %29, %.preheader43.us.us.us
  %indvars.iv = phi i64 [ %indvars.iv.next, %29 ], [ 0, %.preheader43.us.us.us ]
  %.145.us.us.us = phi i64 [ %46, %29 ], [ %.047.us.us.us, %.preheader43.us.us.us ]
  %30 = trunc nuw nsw i64 %indvars.iv to i32
  %31 = or i32 %28, %30
  %32 = sext i32 %31 to i64
  %33 = getelementptr inbounds i64, ptr %15, i64 %32
  store i64 %.145.us.us.us, ptr %33, align 8, !tbaa !46
  %34 = getelementptr inbounds nuw i32, ptr %1, i64 %indvars.iv
  %35 = load i32, ptr %34, align 4, !tbaa !37
  %36 = sext i32 %35 to i64
  %37 = getelementptr inbounds [6 x i64], ptr @s_Truths6, i64 0, i64 %36
  %38 = load i64, ptr %37, align 8, !tbaa !46
  %39 = xor i64 %38, -1
  %40 = and i64 %.145.us.us.us, %39
  %41 = shl nuw i32 1, %35
  %42 = zext i32 %41 to i64
  %43 = shl i64 %40, %42
  %44 = and i64 %38, %.145.us.us.us
  %45 = lshr i64 %44, %42
  %46 = or i64 %43, %45
  %indvars.iv.next = add nuw nsw i64 %indvars.iv, 1
  %exitcond.not = icmp eq i64 %indvars.iv.next, %wide.trip.count
  br i1 %exitcond.not, label %._crit_edge.us.us.us, label %29, !llvm.loop !90

._crit_edge.us.us.us:                             ; preds = %29
  %47 = getelementptr inbounds nuw i32, ptr %2, i64 %indvars.iv59
  %48 = load i32, ptr %47, align 4, !tbaa !37
  %49 = sext i32 %48 to i64
  %50 = getelementptr inbounds [5 x [3 x i64]], ptr @Extra_Truth6SwapAdjacent.PMasks, i64 0, i64 %49
  %51 = load i64, ptr %50, align 8, !tbaa !46
  %52 = and i64 %51, %46
  %53 = getelementptr inbounds nuw i8, ptr %50, i64 8
  %54 = load i64, ptr %53, align 8, !tbaa !46
  %55 = and i64 %54, %46
  %56 = shl nuw i32 1, %48
  %57 = zext i32 %56 to i64
  %58 = shl i64 %55, %57
  %59 = or i64 %58, %52
  %60 = getelementptr inbounds nuw i8, ptr %50, i64 16
  %61 = load i64, ptr %60, align 8, !tbaa !46
  %62 = and i64 %61, %46
  %63 = lshr i64 %62, %57
  %64 = or i64 %59, %63
  %indvars.iv.next60 = add nuw nsw i64 %indvars.iv59, 1
  %exitcond63.not = icmp eq i64 %indvars.iv.next60, %wide.trip.count62
  br i1 %exitcond63.not, label %._crit_edge48.split.us.us.us, label %.preheader43.us.us.us, !llvm.loop !91

._crit_edge48.split.us.us.us:                     ; preds = %._crit_edge.us.us.us
  br i1 %21, label %.preheader43.lr.ph.us.us, label %.critedge, !llvm.loop !92

.critedge:                                        ; preds = %._crit_edge48.split.us.us.us, %Vec_WrdStart.exit
  ret ptr %9
}